Certificate:
    Data:
        Version: 3 (0x2)
        Serial Number: 1 (0x1)
        Signature Algorithm: sha256WithRSAEncryption
        Issuer: C=US, ST=Denial, L=Springfield, O=Dis, CN=www.example.com
        Validity
            Not Before: Jul 17 09:35:08 2021 GMT
            Not After : Jul  5 09:35:08 2071 GMT
        Subject: C=US, ST=Denial, O=Dis, CN=www.example.com
        Subject Public Key Info:
            Public Key Algorithm: rsaEncryption
                RSA Public-Key: (2048 bit)
                Modulus:
                    00:ce:49:e5:80:9a:a7:6c:73:c1:0e:7f:86:9e:bb:
                    1a:89:1d:8a:cd:19:06:75:b5:de:3b:b9:06:e5:45:
                    70:66:f4:61:4a:4a:3e:06:bb:c8:af:c5:a1:01:c6:
                    c3:cc:4a:14:f8:52:af:ac:5c:d3:9e:38:56:c7:50:
                    74:02:e1:2f:81:6a:60:eb:cc:b1:9d:26:55:04:08:
                    6e:78:06:e2:af:77:08:25:b8:b1:9b:2f:5f:e6:42:
                    f1:78:30:41:4f:1d:3d:53:4c:92:45:cd:6c:71:98:
                    43:c5:a3:bd:99:4c:65:58:1a:2a:9b:f9:29:d9:cd:
                    71:80:1d:3c:3b:0b:1f:50:af:3a:f2:02:dd:5f:71:
                    b0:e7:1f:63:95:a4:c7:90:a6:d4:da:c6:43:cc:61:
                    8b:f9:0a:44:c4:d6:00:e8:71:e0:f5:1a:bd:20:b0:
                    c5:02:0f:29:2b:30:94:43:34:b8:1a:e4:2f:08:57:
                    06:93:78:81:86:1b:47:8a:dc:1d:5f:20:73:be:83:
                    81:d8:fe:49:eb:ee:05:5f:88:b1:a9:22:c7:90:22:
                    64:1e:75:46:05:af:d7:cd:52:a1:3e:86:c0:44:95:
                    22:13:0a:1f:a4:9d:0c:4c:d9:47:ea:a5:59:c5:bd:
                    c2:91:15:4a:78:c7:af:27:44:06:77:46:e0:82:d4:
                    91:f3
                Exponent: 65537 (0x10001)
        X509v3 extensions:
            X509v3 Basic Constraints: 
                CA:FALSE
            Netscape Comment: 
                OpenSSL Generated Certificate
            X509v3 Subject Key Identifier: 
                C1:F9:84:3E:A4:D3:8A:A4:F4:67:AF:13:7B:6C:13:E0:6F:41:43:53
            X509v3 Authority Key Identifier: 
                keyid:C2:43:AB:D7:9E:B2:D0:0A:67:FB:9E:FA:55:FE:8F:C7:6F:A8:70:28

    Signature Algorithm: sha256WithRSAEncryption
         b1:5e:69:d4:96:3a:b3:71:13:4e:e5:44:b4:91:e9:de:96:75:
         73:1c:76:59:e0:cc:cf:db:5c:e8:07:ec:e3:f9:0b:fe:2c:2e:
         54:44:91:c4:70:d7:97:4c:fb:1b:2c:df:c0:bc:46:cb:71:a5:
         e2:02:3f:0b:7a:ca:ae:54:27:2f:41:1a:c2:9e:3c:cb:c7:92:
         e4:51:47:5d:d4:ce:31:aa:ba:b3:90:f6:46:57:d6:5e:76:1b:
         1c:14:b4:e0:dc:40:d8:e5:8c:2d:56:11:22:2d:fb:ee:74:fd:
         80:d9:ed:56:d5:71:bc:1d:7e:47:87:b3:3e:b3:b9:65:5a:11:
         30:56:10:b5:98:19:3c:1f:b3:ac:3f:75:f6:97:e1:95:b9:09:
         ef:de:13:fb:e5:dd:aa:58:87:66:2d:a7:67:f9:16:9b:14:81:
         d5:4e:94:64:af:b1:31:76:9c:05:53:81:f8:42:2e:c1:d6:03:
         de:d3:42:e9:6f:24:1f:af:f7:32:dd:a4:d1:32:7d:ce:47:6e:
         e2:be:62:82:a4:6c:78:df:c6:a1:0c:90:c7:35:9e:2f:27:b0:
         72:91:cb:3a:9d:ea:c7:0c:b0:c1:10:e7:98:97:41:86:86:42:
         98:98:a2:3c:42:00:4d:99:53:8c:6c:5c:d2:e1:be:1c:e1:96:
         88:1b:4f:3b
-----BEGIN CERTIFICATE-----
MIIDmjCCAoKgAwIBAgIBATANBgkqhkiG9w0BAQsFADBcMQswCQYDVQQGEwJVUzEP
MA0GA1UECAwGRGVuaWFsMRQwEgYDVQQHDAtTcHJpbmdmaWVsZDEMMAoGA1UECgwD
RGlzMRgwFgYDVQQDDA93d3cuZXhhbXBsZS5jb20wIBcNMjEwNzE3MDkzNTA4WhgP
MjA3MTA3MDUwOTM1MDhaMEYxCzAJBgNVBAYTAlVTMQ8wDQYDVQQIDAZEZW5pYWwx
DDAKBgNVBAoMA0RpczEYMBYGA1UEAwwPd3d3LmV4YW1wbGUuY29tMIIBIjANBgkq
hkiG9w0BAQEFAAOCAQ8AMIIBCgKCAQEAzknlgJqnbHPBDn+GnrsaiR2KzRkGdbXe
O7kG5UVwZvRhSko+BrvIr8WhAcbDzEoU+FKvrFzTnjhWx1B0AuEvgWpg68yxnSZV
BAhueAbir3cIJbixmy9f5kLxeDBBTx09U0ySRc1scZhDxaO9mUxlWBoqm/kp2c1x
gB08OwsfUK868gLdX3Gw5x9jlaTHkKbU2sZDzGGL+QpExNYA6HHg9Rq9ILDFAg8p
KzCUQzS4GuQvCFcGk3iBhhtHitwdXyBzvoOB2P5J6+4FX4ixqSLHkCJkHnVGBa/X
zVKhPobARJUiEwofpJ0MTNlH6qVZxb3CkRVKeMevJ0QGd0bggtSR8wIDAQABo3sw
eTAJBgNVHRMEAjAAMCwGCWCGSAGG+EIBDQQfFh1PcGVuU1NMIEdlbmVyYXRlZCBD
ZXJ0aWZpY2F0ZTAdBgNVHQ4EFgQUwfmEPqTTiqT0Z68Te2wT4G9BQ1MwHwYDVR0j
BBgwFoAUwkOr156y0Apn+576Vf6Px2+ocCgwDQYJKoZIhvcNAQELBQADggEBALFe
adSWOrNxE07lRLSR6d6WdXMcdlngzM/bXOgH7OP5C/4sLlREkcRw15dM+xss38C8
RstxpeICPwt6yq5UJy9BGsKePMvHkuRRR13UzjGqurOQ9kZX1l52GxwUtODcQNjl
jC1WESIt++50/YDZ7VbVcbwdfkeHsz6zuWVaETBWELWYGTwfs6w/dfaX4ZW5Ce/e
E/vl3apYh2Ytp2f5FpsUgdVOlGSvsTF2nAVTgfhCLsHWA97TQulvJB+v9zLdpNEy
fc5HbuK+YoKkbHjfxqEMkMc1ni8nsHKRyzqd6scMsMEQ55iXQYaGQpiYojxCAE2Z
U4xsXNLhvhzhlogbTzs=
-----END CERTIFICATE-----
